target datalayout = "e-m:e-p270:32:32-p271:32:32-p272:64:64-i64:64-i128:128-f80:128-n8:16:32:64-S128"
target triple = "x86_64-pc-linux-gnu"

%struct.RelFileLocator = type { i32, i32, i32 }
%struct.SMgrRelationData = type { %struct.RelFileLocatorBackend, i32, [4 x i32], i32, [4 x i32], [4 x ptr], i32, %struct.dlist_node }
%struct.RelFileLocatorBackend = type { %struct.RelFileLocator, i32 }
%struct.dlist_node = type { ptr, ptr }
%struct.PendingRelSync = type { %struct.RelFileLocator, i8 }
%struct.RelationData = type { %struct.RelFileLocator, ptr, i32, i32, i8, i8, i8, i8, i8, i32, i32, i32, i32, ptr, ptr, i32, %struct.LockInfoData, ptr, ptr, ptr, ptr, ptr, i8, ptr, ptr, ptr, ptr, ptr, ptr, i32, ptr, i8, ptr, ptr, i32, i8, i32, ptr, i8, ptr, ptr, ptr, ptr, ptr, ptr, ptr, i32, ptr, ptr, ptr, ptr, ptr, ptr, ptr, ptr, ptr, ptr, ptr, ptr, ptr, ptr, ptr, ptr, ptr, ptr, ptr, i32, i8, ptr }
%struct.LockInfoData = type { %struct.LockRelId }
%struct.LockRelId = type { i32, i32 }

@pendingSyncHash = internal global ptr null, align 8

; Function Attrs: inlinehint nounwind uwtable
define internal ptr @RelationGetSmgr(ptr noundef %0) #5 {
  %2 = alloca ptr, align 8
  %3 = alloca { i64, i32 }, align 8
  store ptr %0, ptr %2, align 8
  %4 = load ptr, ptr %2, align 8
  %5 = getelementptr inbounds nuw %struct.RelationData, ptr %4, i32 0, i32 1
  %6 = load ptr, ptr %5, align 8
  %7 = icmp eq ptr %6, null
  %8 = zext i1 %7 to i32
  %9 = icmp ne i32 %8, 0
  %10 = zext i1 %9 to i32
  %11 = sext i32 %10 to i64
  %12 = call i64 @llvm.expect.i64(i64 %11, i64 0)
  %13 = icmp ne i64 %12, 0
  br i1 %13, label %14, label %30

14:                                               ; preds = %1
  %15 = load ptr, ptr %2, align 8
  %16 = getelementptr inbounds nuw %struct.RelationData, ptr %15, i32 0, i32 0
  %17 = load ptr, ptr %2, align 8
  %18 = getelementptr inbounds nuw %struct.RelationData, ptr %17, i32 0, i32 3
  %19 = load i32, ptr %18, align 4
  call void @llvm.memcpy.p0.p0.i64(ptr align 8 %3, ptr align 8 %16, i64 12, i1 false)
  %20 = getelementptr inbounds nuw { i64, i32 }, ptr %3, i32 0, i32 0
  %21 = load i64, ptr %20, align 8
  %22 = getelementptr inbounds nuw { i64, i32 }, ptr %3, i32 0, i32 1
  %23 = load i32, ptr %22, align 8
  %24 = call ptr @smgropen(i64 %21, i32 %23, i32 noundef %19)
  %25 = load ptr, ptr %2, align 8
  %26 = getelementptr inbounds nuw %struct.RelationData, ptr %25, i32 0, i32 1
  store ptr %24, ptr %26, align 8
  %27 = load ptr, ptr %2, align 8
  %28 = getelementptr inbounds nuw %struct.RelationData, ptr %27, i32 0, i32 1
  %29 = load ptr, ptr %28, align 8
  call void @smgrpin(ptr noundef %29)
  br label %30

30:                                               ; preds = %14, %1
  %31 = load ptr, ptr %2, align 8
  %32 = getelementptr inbounds nuw %struct.RelationData, ptr %31, i32 0, i32 1
  %33 = load ptr, ptr %32, align 8
  ret ptr %33
}

; Function Attrs: nounwind uwtable
define dso_local void @RelationPreTruncate(ptr noundef %0) #0 {
  %2 = alloca ptr, align 8
  %3 = alloca ptr, align 8
  %4 = alloca i32, align 4
  store ptr %0, ptr %2, align 8
  call void @llvm.lifetime.start.p0(i64 8, ptr %3) #8
  %5 = load ptr, ptr @pendingSyncHash, align 8
  %6 = icmp ne ptr %5, null
  br i1 %6, label %8, label %7

7:                                                ; preds = %1
  store i32 1, ptr %4, align 4
  br label %21

8:                                                ; preds = %1
  %9 = load ptr, ptr @pendingSyncHash, align 8
  %10 = load ptr, ptr %2, align 8
  %11 = call ptr @RelationGetSmgr(ptr noundef %10)
  %12 = getelementptr inbounds nuw %struct.SMgrRelationData, ptr %11, i32 0, i32 0
  %13 = getelementptr inbounds nuw %struct.RelFileLocatorBackend, ptr %12, i32 0, i32 0
  %14 = call ptr @hash_search(ptr noundef %9, ptr noundef %13, i32 noundef 0, ptr noundef null)
  store ptr %14, ptr %3, align 8
  %15 = load ptr, ptr %3, align 8
  %16 = icmp ne ptr %15, null
  br i1 %16, label %17, label %20

17:                                               ; preds = %8
  %18 = load ptr, ptr %3, align 8
  %19 = getelementptr inbounds nuw %struct.PendingRelSync, ptr %18, i32 0, i32 1
  store i8 1, ptr %19, align 4
  br label %20

20:                                               ; preds = %17, %8
  store i32 0, ptr %4, align 4
  br label %21

21:                                               ; preds = %20, %7
  call void @llvm.lifetime.end.p0(i64 8, ptr %3) #8
  %22 = load i32, ptr %4, align 4
  switch i32 %22, label %24 [
    i32 0, label %23
    i32 1, label %23
  ]

23:                                               ; preds = %21, %21
  ret void

24:                                               ; preds = %21
  unreachable
}