; Function Attrs: nounwind uwtable
define dso_local void @RelationPreTruncate(ptr noundef captures(none) %0) local_unnamed_addr #0 {
  %2 = load ptr, ptr @pendingSyncHash, align 8
  %.not = icmp eq ptr %2, null
  br i1 %.not, label %15, label %3

3:                                                ; preds = %1
  %4 = getelementptr inbounds nuw i8, ptr %0, i64 16
  %5 = load ptr, ptr %4, align 8
  %6 = icmp eq ptr %5, null
  br i1 %6, label %7, label %RelationGetSmgr.exit, !prof !8

7:                                                ; preds = %3
  %8 = getelementptr inbounds nuw i8, ptr %0, i64 28
  %9 = load i32, ptr %8, align 4
  %.sroa.0.0.copyload.i = load i64, ptr %0, align 8
  %.sroa.2.0..sroa_idx.i = getelementptr inbounds nuw i8, ptr %0, i64 8
  %.sroa.2.0.copyload.i = load i32, ptr %.sroa.2.0..sroa_idx.i, align 8
  %10 = tail call ptr @smgropen(i64 %.sroa.0.0.copyload.i, i32 %.sroa.2.0.copyload.i, i32 noundef %9) #8
  store ptr %10, ptr %4, align 8
  tail call void @smgrpin(ptr noundef %10) #8
  %.pre.i = load ptr, ptr %4, align 8
  br label %RelationGetSmgr.exit

RelationGetSmgr.exit:                             ; preds = %3, %7
  %11 = phi ptr [ %.pre.i, %7 ], [ %5, %3 ]
  %12 = tail call ptr @hash_search(ptr noundef nonnull %2, ptr noundef %11, i32 noundef 0, ptr noundef null) #8
  %.not4 = icmp eq ptr %12, null
  br i1 %.not4, label %15, label %13

13:                                               ; preds = %RelationGetSmgr.exit
  %14 = getelementptr inbounds nuw i8, ptr %12, i64 12
  store i8 1, ptr %14, align 4
  br label %15

15:                                               ; preds = %RelationGetSmgr.exit, %13, %1
  ret void
}